target datalayout = "e-m:e-p270:32:32-p271:32:32-p272:64:64-i64:64-f80:128-n8:16:32:64-S128"
target triple = "x86_64-pc-linux-gnu"

@.str = private unnamed_addr constant [3 x i8] c"%d\00", align 1
@.str.1 = private unnamed_addr constant [3 x i8] c"%s\00", align 1
@.str.2 = private unnamed_addr constant [4 x i8] c"NO\0A\00", align 1
@.str.3 = private unnamed_addr constant [4 x i8] c"%d\0A\00", align 1
@.str.4 = private unnamed_addr constant [4 x i8] c"%s\0A\00", align 1

; Function Attrs: noinline nounwind uwtable
define dso_local void @main() #0 {
  %1 = alloca i32, align 4
  %2 = alloca i32, align 4
  %3 = alloca [500 x i32], align 16
  %4 = alloca i32, align 4
  %5 = alloca i32, align 4
  %6 = alloca i32, align 4
  %7 = alloca i32, align 4
  %8 = alloca [501 x i8], align 16
  %9 = alloca [500 x [6 x i8]], align 16
  %10 = alloca [500 x [6 x i8]], align 16
  %11 = bitcast [500 x i32]* %3 to i8*
  call void @llvm.memset.p0i8.i64(i8* align 16 %11, i8 0, i64 2000, i1 false)
  store i32 0, i32* %4, align 4
  %12 = call i32 (i8*, ...) @__isoc99_scanf(i8* getelementptr inbounds ([3 x i8], [3 x i8]* @.str, i64 0, i64 0), i32* %1)
  %13 = getelementptr inbounds [501 x i8], [501 x i8]* %8, i64 0, i64 0
  %14 = call i32 (i8*, ...) @__isoc99_scanf(i8* getelementptr inbounds ([3 x i8], [3 x i8]* @.str.1, i64 0, i64 0), i8* %13)
  %15 = getelementptr inbounds [501 x i8], [501 x i8]* %8, i64 0, i64 0
  %16 = call i64 @strlen(i8* %15) #4
  %17 = trunc i64 %16 to i32
  store i32 %17, i32* %5, align 4
  store i32 0, i32* %2, align 4
  br label %18

18:                                               ; preds = %68, %0
  %19 = load i32, i32* %2, align 4
  %20 = load i32, i32* %5, align 4
  %21 = load i32, i32* %1, align 4
  %22 = sub nsw i32 %20, %21
  %23 = icmp sle i32 %19, %22
  br i1 %23, label %24, label %71

24:                                               ; preds = %18
  store i32 0, i32* %6, align 4
  %25 = load i32, i32* %2, align 4
  store i32 %25, i32* %7, align 4
  br label %26

26:                                               ; preds = %52, %24
  %27 = load i32, i32* %7, align 4
  %28 = load i32, i32* %2, align 4
  %29 = load i32, i32* %1, align 4
  %30 = add nsw i32 %28, %29
  %31 = sub nsw i32 %30, 1
  %32 = icmp sle i32 %27, %31
  br i1 %32, label %33, label %55

33:                                               ; preds = %26
  %34 = load i32, i32* %7, align 4
  %35 = sext i32 %34 to i64
  %36 = getelementptr inbounds [501 x i8], [501 x i8]* %8, i64 0, i64 %35
  %37 = load i8, i8* %36, align 1
  %38 = load i32, i32* %2, align 4
  %39 = sext i32 %38 to i64
  %40 = getelementptr inbounds [500 x [6 x i8]], [500 x [6 x i8]]* %10, i64 0, i64 %39
  %41 = load i32, i32* %6, align 4
  %42 = sext i32 %41 to i64
  %43 = getelementptr inbounds [6 x i8], [6 x i8]* %40, i64 0, i64 %42
  store i8 %37, i8* %43, align 1
  %44 = load i32, i32* %2, align 4
  %45 = sext i32 %44 to i64
  %46 = getelementptr inbounds [500 x [6 x i8]], [500 x [6 x i8]]* %9, i64 0, i64 %45
  %47 = load i32, i32* %6, align 4
  %48 = sext i32 %47 to i64
  %49 = getelementptr inbounds [6 x i8], [6 x i8]* %46, i64 0, i64 %48
  store i8 %37, i8* %49, align 1
  %50 = load i32, i32* %6, align 4
  %51 = add nsw i32 %50, 1
  store i32 %51, i32* %6, align 4
  br label %52

52:                                               ; preds = %33
  %53 = load i32, i32* %7, align 4
  %54 = add nsw i32 %53, 1
  store i32 %54, i32* %7, align 4
  br label %26

55:                                               ; preds = %26
  %56 = load i32, i32* %2, align 4
  %57 = sext i32 %56 to i64
  %58 = getelementptr inbounds [500 x [6 x i8]], [500 x [6 x i8]]* %10, i64 0, i64 %57
  %59 = load i32, i32* %6, align 4
  %60 = sext i32 %59 to i64
  %61 = getelementptr inbounds [6 x i8], [6 x i8]* %58, i64 0, i64 %60
  store i8 0, i8* %61, align 1
  %62 = load i32, i32* %2, align 4
  %63 = sext i32 %62 to i64
  %64 = getelementptr inbounds [500 x [6 x i8]], [500 x [6 x i8]]* %9, i64 0, i64 %63
  %65 = load i32, i32* %6, align 4
  %66 = sext i32 %65 to i64
  %67 = getelementptr inbounds [6 x i8], [6 x i8]* %64, i64 0, i64 %66
  store i8 0, i8* %67, align 1
  br label %68

68:                                               ; preds = %55
  %69 = load i32, i32* %2, align 4
  %70 = add nsw i32 %69, 1
  store i32 %70, i32* %2, align 4
  br label %18

71:                                               ; preds = %18
  store i32 0, i32* %2, align 4
  br label %72

72:                                               ; preds = %133, %71
  %73 = load i32, i32* %2, align 4
  %74 = load i32, i32* %5, align 4
  %75 = load i32, i32* %1, align 4
  %76 = sub nsw i32 %74, %75
  %77 = icmp sle i32 %73, %76
  br i1 %77, label %78, label %136

78:                                               ; preds = %72
  %79 = load i32, i32* %2, align 4
  %80 = sext i32 %79 to i64
  %81 = getelementptr inbounds [500 x [6 x i8]], [500 x [6 x i8]]* %9, i64 0, i64 %80
  %82 = getelementptr inbounds [6 x i8], [6 x i8]* %81, i64 0, i64 0
  %83 = load i8, i8* %82, align 2
  %84 = sext i8 %83 to i32
  %85 = icmp ne i32 %84, 0
  br i1 %85, label %86, label %132

86:                                               ; preds = %78
  %87 = load i32, i32* %2, align 4
  store i32 %87, i32* %7, align 4
  br label %88

88:                                               ; preds = %128, %86
  %89 = load i32, i32* %7, align 4
  %90 = load i32, i32* %5, align 4
  %91 = load i32, i32* %1, align 4
  %92 = sub nsw i32 %90, %91
  %93 = icmp sle i32 %89, %92
  br i1 %93, label %94, label %131

94:                                               ; preds = %88
  %95 = load i32, i32* %7, align 4
  %96 = sext i32 %95 to i64
  %97 = getelementptr inbounds [500 x [6 x i8]], [500 x [6 x i8]]* %9, i64 0, i64 %96
  %98 = getelementptr inbounds [6 x i8], [6 x i8]* %97, i64 0, i64 0
  %99 = load i8, i8* %98, align 2
  %100 = sext i8 %99 to i32
  %101 = icmp ne i32 %100, 0
  br i1 %101, label %102, label %127

102:                                              ; preds = %94
  %103 = load i32, i32* %2, align 4
  %104 = sext i32 %103 to i64
  %105 = getelementptr inbounds [500 x [6 x i8]], [500 x [6 x i8]]* %10, i64 0, i64 %104
  %106 = getelementptr inbounds [6 x i8], [6 x i8]* %105, i64 0, i64 0
  %107 = load i32, i32* %7, align 4
  %108 = sext i32 %107 to i64
  %109 = getelementptr inbounds [500 x [6 x i8]], [500 x [6 x i8]]* %9, i64 0, i64 %108
  %110 = getelementptr inbounds [6 x i8], [6 x i8]* %109, i64 0, i64 0
  %111 = call i32 @strcmp(i8* %106, i8* %110) #4
  %112 = icmp eq i32 %111, 0
  br i1 %112, label %113, label %126

113:                                              ; preds = %102
  %114 = load i32, i32* %2, align 4
  %115 = sext i32 %114 to i64
  %116 = getelementptr inbounds [500 x i32], [500 x i32]* %3, i64 0, i64 %115
  %117 = load i32, i32* %116, align 4
  %118 = add nsw i32 %117, 1
  %119 = load i32, i32* %2, align 4
  %120 = sext i32 %119 to i64
  %121 = getelementptr inbounds [500 x i32], [500 x i32]* %3, i64 0, i64 %120
  store i32 %118, i32* %121, align 4
  %122 = load i32, i32* %7, align 4
  %123 = sext i32 %122 to i64
  %124 = getelementptr inbounds [500 x [6 x i8]], [500 x [6 x i8]]* %9, i64 0, i64 %123
  %125 = getelementptr inbounds [6 x i8], [6 x i8]* %124, i64 0, i64 0
  store i8 0, i8* %125, align 2
  br label %126

126:                                              ; preds = %113, %102
  br label %127

127:                                              ; preds = %126, %94
  br label %128

128:                                              ; preds = %127
  %129 = load i32, i32* %7, align 4
  %130 = add nsw i32 %129, 1
  store i32 %130, i32* %7, align 4
  br label %88

131:                                              ; preds = %88
  br label %132

132:                                              ; preds = %131, %78
  br label %133

133:                                              ; preds = %132
  %134 = load i32, i32* %2, align 4
  %135 = add nsw i32 %134, 1
  store i32 %135, i32* %2, align 4
  br label %72

136:                                              ; preds = %72
  store i32 0, i32* %2, align 4
  br label %137

137:                                              ; preds = %156, %136
  %138 = load i32, i32* %2, align 4
  %139 = load i32, i32* %5, align 4
  %140 = load i32, i32* %1, align 4
  %141 = sub nsw i32 %139, %140
  %142 = icmp sle i32 %138, %141
  br i1 %142, label %143, label %159

143:                                              ; preds = %137
  %144 = load i32, i32* %2, align 4
  %145 = sext i32 %144 to i64
  %146 = getelementptr inbounds [500 x i32], [500 x i32]* %3, i64 0, i64 %145
  %147 = load i32, i32* %146, align 4
  %148 = load i32, i32* %4, align 4
  %149 = icmp sgt i32 %147, %148
  br i1 %149, label %150, label %155

150:                                              ; preds = %143
  %151 = load i32, i32* %2, align 4
  %152 = sext i32 %151 to i64
  %153 = getelementptr inbounds [500 x i32], [500 x i32]* %3, i64 0, i64 %152
  %154 = load i32, i32* %153, align 4
  store i32 %154, i32* %4, align 4
  br label %155

155:                                              ; preds = %150, %143
  br label %156

156:                                              ; preds = %155
  %157 = load i32, i32* %2, align 4
  %158 = add nsw i32 %157, 1
  store i32 %158, i32* %2, align 4
  br label %137

159:                                              ; preds = %137
  %160 = load i32, i32* %4, align 4
  %161 = icmp sle i32 %160, 1
  br i1 %161, label %162, label %164

162:                                              ; preds = %159
  %163 = call i32 (i8*, ...) @printf(i8* getelementptr inbounds ([4 x i8], [4 x i8]* @.str.2, i64 0, i64 0))
  br label %191

164:                                              ; preds = %159
  %165 = load i32, i32* %4, align 4
  %166 = call i32 (i8*, ...) @printf(i8* getelementptr inbounds ([4 x i8], [4 x i8]* @.str.3, i64 0, i64 0), i32 %165)
  store i32 0, i32* %2, align 4
  br label %167

167:                                              ; preds = %187, %164
  %168 = load i32, i32* %2, align 4
  %169 = load i32, i32* %5, align 4
  %170 = load i32, i32* %1, align 4
  %171 = sub nsw i32 %169, %170
  %172 = icmp sle i32 %168, %171
  br i1 %172, label %173, label %190

173:                                              ; preds = %167
  %174 = load i32, i32* %2, align 4
  %175 = sext i32 %174 to i64
  %176 = getelementptr inbounds [500 x i32], [500 x i32]* %3, i64 0, i64 %175
  %177 = load i32, i32* %176, align 4
  %178 = load i32, i32* %4, align 4
  %179 = icmp eq i32 %177, %178
  br i1 %179, label %180, label %186

180:                                              ; preds = %173
  %181 = load i32, i32* %2, align 4
  %182 = sext i32 %181 to i64
  %183 = getelementptr inbounds [500 x [6 x i8]], [500 x [6 x i8]]* %10, i64 0, i64 %182
  %184 = getelementptr inbounds [6 x i8], [6 x i8]* %183, i64 0, i64 0
  %185 = call i32 (i8*, ...) @printf(i8* getelementptr inbounds ([4 x i8], [4 x i8]* @.str.4, i64 0, i64 0), i8* %184)
  br label %186

186:                                              ; preds = %180, %173
  br label %187

187:                                              ; preds = %186
  %188 = load i32, i32* %2, align 4
  %189 = add nsw i32 %188, 1
  store i32 %189, i32* %2, align 4
  br label %167

190:                                              ; preds = %167
  br label %191

191:                                              ; preds = %190, %162
  ret void
}